(dp0
S'METTS MARK'
p1
(dp2
S'salary'
p3
I365788
sS'bonus'
p4
I600000
sS'total_stock_value'
p5
I585062
sS'exercised_stock_options'
p6
I0
sS'poi'
p7
I00
sS'deferred_income'
p8
I0
ssS'BAXTER JOHN C'
p9
(dp10
g3
I267102
sg4
I1200000
sg5
I10623258
sg6
I6680544
sg7
I00
sg8
I-1386055
ssS'ELLIOTT STEVEN'
p11
(dp12
g3
I170941
sg4
I350000
sg5
I6678735
sg6
I4890344
sg7
I00
sg8
I-400729
ssS'CORDES WILLIAM R'
p13
(dp14
g3
I0
sg4
I0
sg5
I1038185
sg6
I651850
sg7
I00
sg8
I0
ssS'HANNON KEVIN P'
p15
(dp16
g3
I243293
sg4
I1500000
sg5
I6391065
sg6
I5538001
sg7
I01
sg8
I-3117011
ssS'MORDAUNT KRISTINA M'
p17
(dp18
g3
I267093
sg4
I325000
sg5
I208510
sg6
I0
sg7
I00
sg8
I0
ssS'MEYER ROCKFORD G'
p19
(dp20
g3
I0
sg4
I0
sg5
I955873
sg6
I493489
sg7
I00
sg8
I0
ssS'MCMAHON JEFFREY'
p21
(dp22
g3
I370448
sg4
I2600000
sg5
I1662855
sg6
I1104054
sg7
I00
sg8
I0
ssS'HORTON STANLEY C'
p23
(dp24
g3
I0
sg4
I0
sg5
I7256648
sg6
I5210569
sg7
I00
sg8
I0
ssS'PIPER GREGORY F'
p25
(dp26
g3
I197091
sg4
I400000
sg5
I880290
sg6
I880290
sg7
I00
sg8
I-33333
ssS'HUMPHREY GENE E'
p27
(dp28
g3
I130724
sg4
I0
sg5
I2282768
sg6
I2282768
sg7
I00
sg8
I0
ssS'UMANOFF ADAM S'
p29
(dp30
g3
I288589
sg4
I788750
sg5
I0
sg6
I0
sg7
I00
sg8
I0
ssS'BLACHMAN JEREMY M'
p31
(dp32
g3
I248546
sg4
I850000
sg5
I954354
sg6
I765313
sg7
I00
sg8
I0
ssS'SUNDE MARTIN'
p33
(dp34
g3
I257486
sg4
I700000
sg5
I698920
sg6
I0
sg7
I00
sg8
I0
ssS'GIBBS DANA R'
p35
(dp36
g3
I0
sg4
I0
sg5
I2218275
sg6
I2218275
sg7
I00
sg8
I0
ssS'LOWRY CHARLES P'
p37
(dp38
g3
I0
sg4
I0
sg5
I372205
sg6
I372205
sg7
I00
sg8
I0
ssS'COLWELL WESLEY'
p39
(dp40
g3
I288542
sg4
I1200000
sg5
I698242
sg6
I0
sg7
I01
sg8
I-144062
ssS'MULLER MARK S'
p41
(dp42
g3
I251654
sg4
I1100000
sg5
I1416848
sg6
I1056320
sg7
I00
sg8
I-719000
ssS'JACKSON CHARLENE R'
p43
(dp44
g3
I288558
sg4
I250000
sg5
I725735
sg6
I185063
sg7
I00
sg8
I0
ssS'WESTFAHL RICHARD K'
p45
(dp46
g3
I63744
sg4
I0
sg5
I384930
sg6
I0
sg7
I00
sg8
I-10800
ssS'WALTERS GARETH W'
p47
(dp48
g3
I0
sg4
I0
sg5
I1030329
sg6
I1030329
sg7
I00
sg8
I0
ssS'WALLS JR ROBERT H'
p49
(dp50
g3
I357091
sg4
I850000
sg5
I5898997
sg6
I4346544
sg7
I00
sg8
I0
ssS'KITCHEN LOUISE'
p51
(dp52
g3
I271442
sg4
I3100000
sg5
I547143
sg6
I81042
sg7
I00
sg8
I0
ssS'CHAN RONNIE'
p53
(dp54
g3
I0
sg4
I0
sg5
I0
sg6
I0
sg7
I00
sg8
I-98784
ssS'BELFER ROBERT'
p55
(dp56
g3
I0
sg4
I0
sg5
I-44093
sg6
I3285
sg7
I00
sg8
I0
ssS'SHANKMAN JEFFREY A'
p57
(dp58
g3
I304110
sg4
I2000000
sg5
I2072035
sg6
I1441898
sg7
I00
sg8
I0
ssS'WODRASKA JOHN'
p59
(dp60
g3
I0
sg4
I0
sg5
I0
sg6
I0
sg7
I00
sg8
I0
ssS'BERGSIEKER RICHARD P'
p61
(dp62
g3
I187922
sg4
I250000
sg5
I659249
sg6
I0
sg7
I00
sg8
I-485813
ssS'URQUHART JOHN A'
p63
(dp64
g3
I0
sg4
I0
sg5
I0
sg6
I0
sg7
I00
sg8
I-36666
ssS'BIBI PHILIPPE A'
p65
(dp66
g3
I213625
sg4
I1000000
sg5
I1843816
sg6
I1465734
sg7
I00
sg8
I0
ssS'PIRO JIM'
p67
(dp68
g3
I0
sg4
I0
sg5
I47304
sg6
I0
sg7
I00
sg8
I0
ssS'RIEKER PAULA H'
p69
(dp70
g3
I249201
sg4
I700000
sg5
I1918887
sg6
I1635238
sg7
I01
sg8
I-100000
ssS'WHALEY DAVID A'
p71
(dp72
g3
I0
sg4
I0
sg5
I98718
sg6
I98718
sg7
I00
sg8
I0
ssS'BECK SALLY W'
p73
(dp74
g3
I231330
sg4
I700000
sg5
I126027
sg6
I0
sg7
I00
sg8
I0
ssS'HAUG DAVID L'
p75
(dp76
g3
I0
sg4
I0
sg5
I2217299
sg6
I0
sg7
I00
sg8
I0
ssS'ECHOLS JOHN B'
p77
(dp78
g3
I182245
sg4
I200000
sg5
I1008941
sg6
I601438
sg7
I00
sg8
I0
ssS'MENDELSOHN JOHN'
p79
(dp80
g3
I0
sg4
I0
sg5
I0
sg6
I0
sg7
I00
sg8
I-103750
ssS'HICKERSON GARY J'
p81
(dp82
g3
I211788
sg4
I1700000
sg5
I441096
sg6
I0
sg7
I00
sg8
I0
ssS'CLINE KENNETH W'
p83
(dp84
g3
I0
sg4
I0
sg5
I189518
sg6
I0
sg7
I00
sg8
I0
ssS'LEWIS RICHARD'
p85
(dp86
g3
I0
sg4
I0
sg5
I850477
sg6
I850477
sg7
I00
sg8
I0
ssS'HAYES ROBERT E'
p87
(dp88
g3
I0
sg4
I0
sg5
I151418
sg6
I0
sg7
I00
sg8
I0
ssS'KOPPER MICHAEL J'
p89
(dp90
g3
I224305
sg4
I800000
sg5
I985032
sg6
I0
sg7
I01
sg8
I0
ssS'LEFF DANIEL P'
p91
(dp92
g3
I273746
sg4
I1000000
sg5
I360528
sg6
I0
sg7
I00
sg8
I0
ssS'LAVORATO JOHN J'
p93
(dp94
g3
I339288
sg4
I8000000
sg5
I5167144
sg6
I4158995
sg7
I00
sg8
I0
ssS'BERBERIAN DAVID'
p95
(dp96
g3
I216582
sg4
I0
sg5
I2493616
sg6
I1624396
sg7
I00
sg8
I0
ssS'DETMERING TIMOTHY J'
p97
(dp98
g3
I210500
sg4
I425000
sg5
I2027865
sg6
I2027865
sg7
I00
sg8
I-775241
ssS'WAKEHAM JOHN'
p99
(dp100
g3
I0
sg4
I0
sg5
I0
sg6
I0
sg7
I00
sg8
I0
ssS'POWERS WILLIAM'
p101
(dp102
g3
I0
sg4
I0
sg5
I0
sg6
I0
sg7
I00
sg8
I-17500
ssS'GOLD JOSEPH'
p103
(dp104
g3
I272880
sg4
I750000
sg5
I877611
sg6
I436515
sg7
I00
sg8
I0
ssS'BANNANTINE JAMES M'
p105
(dp106
g3
I477
sg4
I0
sg5
I5243487
sg6
I4046157
sg7
I00
sg8
I-5104
ssS'DUNCAN JOHN H'
p107
(dp108
g3
I0
sg4
I0
sg5
I371750
sg6
I371750
sg7
I00
sg8
I-25000
ssS'SHAPIRO RICHARD S'
p109
(dp110
g3
I269076
sg4
I650000
sg5
I987001
sg6
I607837
sg7
I00
sg8
I0
ssS'SHERRIFF JOHN R'
p111
(dp112
g3
I428780
sg4
I1500000
sg5
I3128982
sg6
I1835558
sg7
I00
sg8
I0
ssS'SHELBY REX'
p113
(dp114
g3
I211844
sg4
I200000
sg5
I2493616
sg6
I1624396
sg7
I01
sg8
I-4167
ssS'LEMAISTRE CHARLES'
p115
(dp116
g3
I0
sg4
I0
sg5
I412878
sg6
I412878
sg7
I00
sg8
I-25000
ssS'DEFFNER JOSEPH M'
p117
(dp118
g3
I206121
sg4
I600000
sg5
I159211
sg6
I17378
sg7
I00
sg8
I0
ssS'KISHKILL JOSEPH G'
p119
(dp120
g3
I174246
sg4
I0
sg5
I1034346
sg6
I0
sg7
I00
sg8
I-51042
ssS'WHALLEY LAWRENCE G'
p121
(dp122
g3
I510364
sg4
I3000000
sg5
I6079137
sg6
I3282960
sg7
I00
sg8
I0
ssS'MCCARTY DANNY J'
p123
(dp124
g3
I0
sg4
I0
sg5
I758931
sg6
I664375
sg7
I00
sg8
I0
ssS'MCCONNELL MICHAEL S'
p125
(dp126
g3
I365038
sg4
I1100000
sg5
I3101279
sg6
I1623010
sg7
I00
sg8
I0
ssS'DELAINEY DAVID W'
p127
(dp128
g3
I365163
sg4
I3000000
sg5
I3614261
sg6
I2291113
sg7
I01
sg8
I0
ssS'SULLIVAN-SHAKLOVITZ COLLEEN'
p129
(dp130
g3
I162779
sg4
I100000
sg5
I1362375
sg6
I1362375
sg7
I00
sg8
I0
ssS'WROBEL BRUCE'
p131
(dp132
g3
I0
sg4
I0
sg5
I139130
sg6
I139130
sg7
I00
sg8
I0
ssS'LINDHOLM TOD A'
p133
(dp134
g3
I236457
sg4
I200000
sg5
I3064208
sg6
I2549361
sg7
I00
sg8
I0
ssS'MEYER JEROME J'
p135
(dp136
g3
I0
sg4
I0
sg5
I0
sg6
I0
sg7
I00
sg8
I-38346
ssS'LAY KENNETH L'
p137
(dp138
g3
I1072321
sg4
I7000000
sg5
I49110078
sg6
I34348384
sg7
I01
sg8
I-300000
ssS'BUTTS ROBERT H'
p139
(dp140
g3
I261516
sg4
I750000
sg5
I417619
sg6
I0
sg7
I00
sg8
I-75000
ssS'OLSON CINDY K'
p141
(dp142
g3
I329078
sg4
I750000
sg5
I2606763
sg6
I1637034
sg7
I00
sg8
I0
ssS'MCDONALD REBECCA'
p143
(dp144
g3
I0
sg4
I0
sg5
I1691366
sg6
I757301
sg7
I00
sg8
I0
ssS'CUMBERLAND MICHAEL S'
p145
(dp146
g3
I184899
sg4
I325000
sg5
I207940
sg6
I0
sg7
I00
sg8
I0
ssS'GAHN ROBERT S'
p147
(dp148
g3
I192008
sg4
I509870
sg5
I318607
sg6
I83237
sg7
I00
sg8
I-1042
ssS'MCCLELLAN GEORGE'
p149
(dp150
g3
I263413
sg4
I900000
sg5
I947861
sg6
I506765
sg7
I00
sg8
I-125000
ssS'HERMANN ROBERT J'
p151
(dp152
g3
I262663
sg4
I700000
sg5
I668132
sg6
I187500
sg7
I00
sg8
I-280000
ssS'SCRIMSHAW MATTHEW'
p153
(dp154
g3
I0
sg4
I0
sg5
I759557
sg6
I759557
sg7
I00
sg8
I0
ssS'GATHMANN WILLIAM D'
p155
(dp156
g3
I0
sg4
I0
sg5
I1945360
sg6
I1753766
sg7
I00
sg8
I0
ssS'HAEDICKE MARK E'
p157
(dp158
g3
I374125
sg4
I1150000
sg5
I803094
sg6
I608750
sg7
I00
sg8
I-934484
ssS'BOWEN JR RAYMOND M'
p159
(dp160
g3
I278601
sg4
I1350000
sg5
I252055
sg6
I0
sg7
I01
sg8
I-833
ssS'GILLIS JOHN'
p161
(dp162
g3
I0
sg4
I0
sg5
I85641
sg6
I9803
sg7
I00
sg8
I0
ssS'FITZGERALD JAY L'
p163
(dp164
g3
I199157
sg4
I350000
sg5
I1621236
sg6
I664461
sg7
I00
sg8
I0
ssS'MORAN MICHAEL P'
p165
(dp166
g3
I0
sg4
I0
sg5
I221141
sg6
I59539
sg7
I00
sg8
I0
ssS'REDMOND BRIAN L'
p167
(dp168
g3
I96840
sg4
I0
sg5
I7890324
sg6
I7509039
sg7
I00
sg8
I0
ssS'BAZELIDES PHILIP J'
p169
(dp170
g3
I80818
sg4
I0
sg5
I1599641
sg6
I1599641
sg7
I00
sg8
I0
ssS'BELDEN TIMOTHY N'
p171
(dp172
g3
I213999
sg4
I5249999
sg5
I1110705
sg6
I953136
sg7
I01
sg8
I-2334434
ssS'DURAN WILLIAM D'
p173
(dp174
g3
I210692
sg4
I750000
sg5
I1640910
sg6
I1451869
sg7
I00
sg8
I0
ssS'THORN TERENCE H'
p175
(dp176
g3
I222093
sg4
I0
sg5
I4817796
sg6
I4452476
sg7
I00
sg8
I0
ssS'FASTOW ANDREW S'
p177
(dp178
g3
I440698
sg4
I1300000
sg5
I1794412
sg6
I0
sg7
I01
sg8
I-1386055
ssS'FOY JOE'
p179
(dp180
g3
I0
sg4
I0
sg5
I343434
sg6
I343434
sg7
I00
sg8
I0
ssS'CALGER CHRISTOPHER F'
p181
(dp182
g3
I240189
sg4
I1250000
sg5
I126027
sg6
I0
sg7
I01
sg8
I-262500
ssS'RICE KENNETH D'
p183
(dp184
g3
I420636
sg4
I1750000
sg5
I22542539
sg6
I19794175
sg7
I01
sg8
I-3504386
ssS'KAMINSKI WINCENTY J'
p185
(dp186
g3
I275101
sg4
I400000
sg5
I976037
sg6
I850010
sg7
I00
sg8
I0
ssS'LOCKHART EUGENE E'
p187
(dp188
g3
I0
sg4
I0
sg5
I0
sg6
I0
sg7
I00
sg8
I0
ssS'COX DAVID'
p189
(dp190
g3
I314288
sg4
I800000
sg5
I495633
sg6
I117551
sg7
I00
sg8
I-41250
ssS'OVERDYKE JR JERE C'
p191
(dp192
g3
I94941
sg4
I0
sg5
I7307594
sg6
I5266578
sg7
I00
sg8
I0
ssS'PEREIRA PAULO V. FERRAZ'
p193
(dp194
g3
I0
sg4
I0
sg5
I0
sg6
I0
sg7
I00
sg8
I-101250
ssS'STABLER FRANK'
p195
(dp196
g3
I239502
sg4
I500000
sg5
I511734
sg6
I0
sg7
I00
sg8
I0
ssS'SKILLING JEFFREY K'
p197
(dp198
g3
I1111258
sg4
I5600000
sg5
I26093672
sg6
I19250000
sg7
I01
sg8
I0
ssS'BLAKE JR. NORMAN P'
p199
(dp200
g3
I0
sg4
I0
sg5
I0
sg6
I0
sg7
I00
sg8
I-113784
ssS'SHERRICK JEFFREY B'
p201
(dp202
g3
I0
sg4
I0
sg5
I1832468
sg6
I1426469
sg7
I00
sg8
I0
ssS'PRENTICE JAMES'
p203
(dp204
g3
I0
sg4
I0
sg5
I1095040
sg6
I886231
sg7
I00
sg8
I0
ssS'GRAY RODNEY'
p205
(dp206
g3
I6615
sg4
I0
sg5
I0
sg6
I0
sg7
I00
sg8
I0
ssS'PICKERING MARK R'
p207
(dp208
g3
I655037
sg4
I300000
sg5
I28798
sg6
I28798
sg7
I00
sg8
I0
ssS'THE TRAVEL AGENCY IN THE PARK'
p209
(dp210
g3
I0
sg4
I0
sg5
I0
sg6
I0
sg7
I00
sg8
I0
ssS'NOLES JAMES L'
p211
(dp212
g3
I0
sg4
I0
sg5
I368705
sg6
I0
sg7
I00
sg8
I0
ssS'KEAN STEVEN J'
p213
(dp214
g3
I404338
sg4
I1000000
sg5
I6153642
sg6
I2022048
sg7
I00
sg8
I0
ssS'FOWLER PEGGY'
p215
(dp216
g3
I0
sg4
I0
sg5
I1884748
sg6
I1324578
sg7
I00
sg8
I0
ssS'WASAFF GEORGE'
p217
(dp218
g3
I259996
sg4
I325000
sg5
I2056427
sg6
I1668260
sg7
I00
sg8
I-583325
ssS'WHITE JR THOMAS E'
p219
(dp220
g3
I317543
sg4
I450000
sg5
I15144123
sg6
I1297049
sg7
I00
sg8
I0
ssS'CHRISTODOULOU DIOMEDES'
p221
(dp222
g3
I0
sg4
I0
sg5
I6077885
sg6
I5127155
sg7
I00
sg8
I0
ssS'ALLEN PHILLIP K'
p223
(dp224
g3
I201955
sg4
I4175000
sg5
I1729541
sg6
I1729541
sg7
I00
sg8
I-3081055
ssS'SHARP VICTORIA T'
p225
(dp226
g3
I248146
sg4
I600000
sg5
I494136
sg6
I281073
sg7
I00
sg8
I0
ssS'JAEDICKE ROBERT'
p227
(dp228
g3
I0
sg4
I0
sg5
I431750
sg6
I431750
sg7
I00
sg8
I-25000
ssS'WINOKUR JR. HERBERT S'
p229
(dp230
g3
I0
sg4
I0
sg5
I0
sg6
I0
sg7
I00
sg8
I-25000
ssS'BROWN MICHAEL'
p231
(dp232
g3
I0
sg4
I0
sg5
I0
sg6
I0
sg7
I00
sg8
I0
ssS'BADUM JAMES P'
p233
(dp234
g3
I0
sg4
I0
sg5
I257817
sg6
I257817
sg7
I00
sg8
I0
ssS'HUGHES JAMES A'
p235
(dp236
g3
I0
sg4
I0
sg5
I1118394
sg6
I754966
sg7
I00
sg8
I0
ssS'REYNOLDS LAWRENCE'
p237
(dp238
g3
I76399
sg4
I100000
sg5
I4221891
sg6
I4160672
sg7
I00
sg8
I-200000
ssS'DIMICHELE RICHARD G'
p239
(dp240
g3
I262788
sg4
I1000000
sg5
I8317782
sg6
I8191755
sg7
I00
sg8
I0
ssS'BHATNAGAR SANJAY'
p241
(dp242
g3
I0
sg4
I0
sg5
I0
sg6
I2604490
sg7
I00
sg8
I0
ssS'CARTER REBECCA C'
p243
(dp244
g3
I261809
sg4
I300000
sg5
I0
sg6
I0
sg7
I00
sg8
I-159792
ssS'BUCHANAN HAROLD G'
p245
(dp246
g3
I248017
sg4
I500000
sg5
I1014505
sg6
I825464
sg7
I00
sg8
I0
ssS'YEAP SOON'
p247
(dp248
g3
I0
sg4
I0
sg5
I192758
sg6
I192758
sg7
I00
sg8
I0
ssS'MURRAY JULIA H'
p249
(dp250
g3
I229284
sg4
I400000
sg5
I597461
sg6
I400478
sg7
I00
sg8
I0
ssS'GARLAND C KEVIN'
p251
(dp252
g3
I231946
sg4
I850000
sg5
I896153
sg6
I636246
sg7
I00
sg8
I0
ssS'DODSON KEITH'
p253
(dp254
g3
I221003
sg4
I70000
sg5
I0
sg6
I0
sg7
I00
sg8
I0
ssS'YEAGER F SCOTT'
p255
(dp256
g3
I158403
sg4
I0
sg5
I11884758
sg6
I8308552
sg7
I01
sg8
I0
ssS'HIRKO JOSEPH'
p257
(dp258
g3
I0
sg4
I0
sg5
I30766064
sg6
I30766064
sg7
I01
sg8
I0
ssS'DIETRICH JANET R'
p259
(dp260
g3
I250100
sg4
I600000
sg5
I1865087
sg6
I1550019
sg7
I00
sg8
I0
ssS'DERRICK JR. JAMES V'
p261
(dp262
g3
I492375
sg4
I800000
sg5
I8831913
sg6
I8831913
sg7
I00
sg8
I-1284000
ssS'FREVERT MARK A'
p263
(dp264
g3
I1060932
sg4
I2000000
sg5
I14622185
sg6
I10433518
sg7
I00
sg8
I-3367011
ssS'PAI LOU L'
p265
(dp266
g3
I261879
sg4
I1000000
sg5
I23817930
sg6
I15364167
sg7
I00
sg8
I0
ssS'BAY FRANKLIN R'
p267
(dp268
g3
I239671
sg4
I400000
sg5
I63014
sg6
I0
sg7
I00
sg8
I-201641
ssS'HAYSLETT RODERICK J'
p269
(dp270
g3
I0
sg4
I0
sg5
I346663
sg6
I0
sg7
I00
sg8
I0
ssS'FUGH JOHN L'
p271
(dp272
g3
I0
sg4
I0
sg5
I176378
sg6
I176378
sg7
I00
sg8
I0
ssS'FALLON JAMES B'
p273
(dp274
g3
I304588
sg4
I2500000
sg5
I2332399
sg6
I940257
sg7
I00
sg8
I0
ssS'KOENIG MARK E'
p275
(dp276
g3
I309946
sg4
I700000
sg5
I1920055
sg6
I671737
sg7
I01
sg8
I0
ssS'SAVAGE FRANK'
p277
(dp278
g3
I0
sg4
I0
sg5
I0
sg6
I0
sg7
I00
sg8
I-121284
ssS'IZZO LAWRENCE L'
p279
(dp280
g3
I85274
sg4
I0
sg5
I5819980
sg6
I2165172
sg7
I00
sg8
I0
ssS'TILNEY ELIZABETH A'
p281
(dp282
g3
I247338
sg4
I300000
sg5
I1168042
sg6
I591250
sg7
I00
sg8
I-575000
ssS'MARTIN AMANDA K'
p283
(dp284
g3
I349487
sg4
I0
sg5
I2070306
sg6
I2070306
sg7
I00
sg8
I0
ssS'BUY RICHARD B'
p285
(dp286
g3
I330546
sg4
I900000
sg5
I3444470
sg6
I2542813
sg7
I00
sg8
I-694862
ssS'GRAMM WENDY L'
p287
(dp288
g3
I0
sg4
I0
sg5
I0
sg6
I0
sg7
I00
sg8
I0
ssS'CAUSEY RICHARD A'
p289
(dp290
g3
I415189
sg4
I1000000
sg5
I2502063
sg6
I0
sg7
I01
sg8
I-235000
ssS'TAYLOR MITCHELL S'
p291
(dp292
g3
I265214
sg4
I600000
sg5
I3745048
sg6
I3181250
sg7
I00
sg8
I0
ssS'DONAHUE JR JEFFREY M'
p293
(dp294
g3
I278601
sg4
I800000
sg5
I1080988
sg6
I765920
sg7
I00
sg8
I-300000
ssS'GLISAN JR BEN F'
p295
(dp296
g3
I274975
sg4
I600000
sg5
I778546
sg6
I384728
sg7
I01
sg8
I0
ss.